target datalayout = "e-m:e-p270:32:32-p271:32:32-p272:64:64-i64:64-i128:128-f80:128-n8:16:32:64-S128"
target triple = "x86_64-pc-linux-gnu"

%struct._JPLISEnvironment = type { ptr, ptr, i8 }
%struct._JPLISAgent = type { ptr, %struct._JPLISEnvironment, %struct._JPLISEnvironment, ptr, ptr, ptr, ptr, i8, i8, i8, i8, ptr, ptr, ptr, i8 }

@.str.1 = private unnamed_addr constant [60 x i8] c"src/java.instrument/share/native/libinstrument/JPLISAgent.c\00", align 1
@.str.55 = private unnamed_addr constant [15 x i8] c"!errorOccurred\00", align 1

; Function Attrs: nounwind uwtable
define hidden ptr @commonGetClassList(ptr noundef %0, ptr noundef %1, ptr noundef %2, ptr noundef %3) #0 {
  %5 = alloca ptr, align 8
  %6 = alloca ptr, align 8
  %7 = alloca ptr, align 8
  %8 = alloca ptr, align 8
  %9 = alloca ptr, align 8
  %10 = alloca ptr, align 8
  %11 = alloca i8, align 1
  %12 = alloca i32, align 4
  %13 = alloca i32, align 4
  %14 = alloca ptr, align 8
  %15 = alloca ptr, align 8
  store ptr %0, ptr %6, align 8
  store ptr %1, ptr %7, align 8
  store ptr %2, ptr %8, align 8
  store ptr %3, ptr %9, align 8
  %16 = load ptr, ptr %7, align 8
  %17 = getelementptr inbounds %struct._JPLISAgent, ptr %16, i32 0, i32 1
  %18 = getelementptr inbounds %struct._JPLISEnvironment, ptr %17, i32 0, i32 0
  %19 = load ptr, ptr %18, align 8
  store ptr %19, ptr %10, align 8
  store i8 0, ptr %11, align 1
  store i32 0, ptr %12, align 4
  store i32 0, ptr %13, align 4
  store ptr null, ptr %14, align 8
  store ptr null, ptr %15, align 8
  %20 = load ptr, ptr %9, align 8
  %21 = load ptr, ptr %10, align 8
  %22 = load ptr, ptr %8, align 8
  %23 = call i32 %20(ptr noundef %21, ptr noundef %22, ptr noundef %13, ptr noundef %14)
  store i32 %23, ptr %12, align 4
  %24 = load i32, ptr %12, align 4
  %25 = icmp eq i32 %24, 112
  br i1 %25, label %26, label %28

26:                                               ; preds = %4
  %27 = load ptr, ptr %15, align 8
  store ptr %27, ptr %5, align 8
  br label %60

28:                                               ; preds = %4
  %29 = load i32, ptr %12, align 4
  %30 = icmp ne i32 %29, 0
  %31 = zext i1 %30 to i32
  %32 = trunc i32 %31 to i8
  store i8 %32, ptr %11, align 1
  %33 = load i8, ptr %11, align 1
  %34 = icmp ne i8 %33, 0
  %35 = xor i1 %34, true
  %36 = zext i1 %35 to i32
  %37 = trunc i32 %36 to i8
  call void @JPLISAssertCondition(i8 noundef zeroext %37, ptr noundef @.str.55, ptr noundef @.str.1, i32 noundef 1403)
  %38 = load i8, ptr %11, align 1
  %39 = icmp ne i8 %38, 0
  br i1 %39, label %40, label %43

40:                                               ; preds = %28
  %41 = load ptr, ptr %6, align 8
  %42 = load i32, ptr %12, align 4
  call void @createAndThrowThrowableFromJVMTIErrorCode(ptr noundef %41, i32 noundef %42)
  br label %57

43:                                               ; preds = %28
  %44 = load ptr, ptr %6, align 8
  %45 = load ptr, ptr %14, align 8
  %46 = load i32, ptr %13, align 4
  %47 = call ptr @getObjectArrayFromClasses(ptr noundef %44, ptr noundef %45, i32 noundef %46)
  store ptr %47, ptr %15, align 8
  %48 = load ptr, ptr %6, align 8
  %49 = call zeroext i8 @checkForThrowable(ptr noundef %48)
  store i8 %49, ptr %11, align 1
  %50 = load i8, ptr %11, align 1
  %51 = icmp ne i8 %50, 0
  %52 = xor i1 %51, true
  %53 = zext i1 %52 to i32
  %54 = trunc i32 %53 to i8
  call void @JPLISAssertCondition(i8 noundef zeroext %54, ptr noundef @.str.55, ptr noundef @.str.1, i32 noundef 1412)
  %55 = load ptr, ptr %10, align 8
  %56 = load ptr, ptr %14, align 8
  call void @deallocate(ptr noundef %55, ptr noundef %56)
  br label %57

57:                                               ; preds = %43, %40
  %58 = load ptr, ptr %6, align 8
  call void @mapThrownThrowableIfNecessary(ptr noundef %58, ptr noundef @mapAllCheckedToInternalErrorMapper)
  %59 = load ptr, ptr %15, align 8
  store ptr %59, ptr %5, align 8
  br label %60

60:                                               ; preds = %57, %26
  %61 = load ptr, ptr %5, align 8
  ret ptr %61
}

; Function Attrs: nounwind uwtable
define hidden ptr @getInitiatedClasses(ptr noundef %0, ptr noundef %1, ptr noundef %2) #0 {
  %4 = alloca ptr, align 8
  %5 = alloca ptr, align 8
  %6 = alloca ptr, align 8
  store ptr %0, ptr %4, align 8
  store ptr %1, ptr %5, align 8
  store ptr %2, ptr %6, align 8
  %7 = load ptr, ptr %4, align 8
  %8 = load ptr, ptr %5, align 8
  %9 = load ptr, ptr %6, align 8
  %10 = call ptr @commonGetClassList(ptr noundef %7, ptr noundef %8, ptr noundef %9, ptr noundef @getInitiatedClassesClassListFetcher)
  ret ptr %10
}