; Function Attrs: nounwind uwtable
define hidden ptr @getInitiatedClasses(ptr noundef %0, ptr nocapture noundef readonly %1, ptr noundef %2) local_unnamed_addr #0 {
  %4 = alloca i32, align 4
  %5 = alloca ptr, align 8
  call void @llvm.lifetime.start.p0(i64 4, ptr nonnull %4)
  call void @llvm.lifetime.start.p0(i64 8, ptr nonnull %5)
  %6 = getelementptr inbounds i8, ptr %1, i64 8
  %7 = load ptr, ptr %6, align 8
  store i32 0, ptr %4, align 4
  store ptr null, ptr %5, align 8
  %8 = load ptr, ptr %7, align 8
  %9 = getelementptr inbounds i8, ptr %8, i64 624
  %10 = load ptr, ptr %9, align 8
  %11 = call i32 %10(ptr noundef nonnull %7, ptr noundef %2, ptr noundef nonnull %4, ptr noundef nonnull %5) #10
  %12 = icmp eq i32 %11, 112
  br i1 %12, label %commonGetClassList.exit, label %13

13:                                               ; preds = %3
  %.not.i = icmp eq i32 %11, 0
  %14 = zext i1 %.not.i to i8
  call void @JPLISAssertCondition(i8 noundef zeroext %14, ptr noundef nonnull @.str.55, ptr noundef nonnull @.str.1, i32 noundef 1403) #10
  br i1 %.not.i, label %16, label %15

15:                                               ; preds = %13
  call void @createAndThrowThrowableFromJVMTIErrorCode(ptr noundef %0, i32 noundef %11) #10
  br label %23

16:                                               ; preds = %13
  %17 = load ptr, ptr %5, align 8
  %18 = load i32, ptr %4, align 4
  %19 = call ptr @getObjectArrayFromClasses(ptr noundef %0, ptr noundef %17, i32 noundef %18)
  %20 = call zeroext i8 @checkForThrowable(ptr noundef %0) #10
  %.not19.i = icmp eq i8 %20, 0
  %21 = zext i1 %.not19.i to i8
  call void @JPLISAssertCondition(i8 noundef zeroext %21, ptr noundef nonnull @.str.55, ptr noundef nonnull @.str.1, i32 noundef 1412) #10
  %22 = load ptr, ptr %5, align 8
  call void @deallocate(ptr noundef nonnull %7, ptr noundef %22) #10
  br label %23

23:                                               ; preds = %16, %15
  %.0.i = phi ptr [ null, %15 ], [ %19, %16 ]
  call void @mapThrownThrowableIfNecessary(ptr noundef %0, ptr noundef nonnull @mapAllCheckedToInternalErrorMapper) #10
  br label %commonGetClassList.exit

commonGetClassList.exit:                          ; preds = %3, %23
  %.017.i = phi ptr [ %.0.i, %23 ], [ null, %3 ]
  call void @llvm.lifetime.end.p0(i64 4, ptr nonnull %4)
  call void @llvm.lifetime.end.p0(i64 8, ptr nonnull %5)
  ret ptr %.017.i
}